target datalayout = "e-m:e-p270:32:32-p271:32:32-p272:64:64-i64:64-i128:128-f80:128-n8:16:32:64-S128"
target triple = "x86_64-pc-linux-gnu"

%struct._object = type { %union.anon, ptr }
%union.anon = type { i64 }

@_Py_NoneStruct = external global %struct._object, align 8
@.str.61 = private unnamed_addr constant [3 x i8] c"On\00", align 1

; Function Attrs: nounwind uwtable
define internal ptr @unicode_encode_set_end(ptr noundef %0, ptr noundef %1) #0 {
  %3 = alloca ptr, align 8
  %4 = alloca ptr, align 8
  %5 = alloca ptr, align 8
  %6 = alloca ptr, align 8
  %7 = alloca i64, align 8
  %8 = alloca i32, align 4
  store ptr %0, ptr %4, align 8, !tbaa !3
  store ptr %1, ptr %5, align 8, !tbaa !3
  call void @llvm.lifetime.start.p0(i64 8, ptr %6) #10
  call void @llvm.lifetime.start.p0(i64 8, ptr %7) #10
  %9 = load ptr, ptr %5, align 8, !tbaa !3
  %10 = call i32 (ptr, ptr, ...) @PyArg_ParseTuple(ptr noundef %9, ptr noundef @.str.61, ptr noundef %6, ptr noundef %7)
  %11 = icmp slt i32 %10, 0
  br i1 %11, label %12, label %13

12:                                               ; preds = %2
  store ptr null, ptr %3, align 8
  store i32 1, ptr %8, align 4
  br label %20

13:                                               ; preds = %2
  %14 = load ptr, ptr %6, align 8, !tbaa !3
  %15 = load i64, ptr %7, align 8, !tbaa !25
  %16 = call i32 @PyUnicodeEncodeError_SetEnd(ptr noundef %14, i64 noundef %15)
  %17 = icmp slt i32 %16, 0
  br i1 %17, label %18, label %19

18:                                               ; preds = %13
  store ptr null, ptr %3, align 8
  store i32 1, ptr %8, align 4
  br label %20

19:                                               ; preds = %13
  store ptr @_Py_NoneStruct, ptr %3, align 8
  store i32 1, ptr %8, align 4
  br label %20

20:                                               ; preds = %19, %18, %12
  call void @llvm.lifetime.end.p0(i64 8, ptr %7) #10
  call void @llvm.lifetime.end.p0(i64 8, ptr %6) #10
  %21 = load ptr, ptr %3, align 8
  ret ptr %21
}